; Function Attrs: mustprogress uwtable
define internal noundef zeroext i1 @"_ZNSt17_Function_handlerIFvvEZN9grpc_core11HttpRequest3GetENS1_3URIEPK17grpc_channel_argsP19grpc_polling_entityPK17grpc_http_requestNS1_9TimestampEP12grpc_closureP18grpc_http_responseNS1_13RefCountedPtrI24grpc_channel_credentialsEEE3$_0E10_M_managerERSt9_Any_dataRKSM_St18_Manager_operation"(ptr nocapture noundef nonnull align 8 dereferenceable(16) %__dest, ptr nocapture noundef nonnull readonly align 8 dereferenceable(16) %__source, i32 noundef %__op) #3 align 2 personality ptr @__gxx_personality_v0 {
entry:
  switch i32 %__op, label %sw.default [
    i32 0, label %sw.bb
    i32 1, label %sw.bb1
  ]

sw.bb:                                            ; preds = %entry
  store ptr @"_ZTIZN9grpc_core11HttpRequest3GetENS_3URIEPK17grpc_channel_argsP19grpc_polling_entityPK17grpc_http_requestNS_9TimestampEP12grpc_closureP18grpc_http_responseNS_13RefCountedPtrI24grpc_channel_credentialsEEE3$_0", ptr %__dest, align 8
  br label %sw.epilog

sw.bb1:                                           ; preds = %entry
  %__source.val = load ptr, ptr %__source, align 8
  store ptr %__source.val, ptr %__dest, align 8
  br label %sw.epilog

sw.default:                                       ; preds = %entry
  %__source.val5 = load ptr, ptr %__source, align 8
  switch i32 %__op, label %sw.epilog [
    i32 3, label %sw.bb6.i
    i32 2, label %sw.bb4.i
  ]

sw.bb4.i:                                         ; preds = %sw.default
  %call.i.i.i = tail call noalias noundef nonnull dereferenceable(232) ptr @_Znwm(i64 noundef 232) #15
  %0 = load ptr, ptr %__source.val5, align 8
  store ptr %0, ptr %call.i.i.i, align 8
  %1 = getelementptr inbounds i8, ptr %call.i.i.i, i64 8
  %2 = getelementptr inbounds i8, ptr %__source.val5, i64 8
  invoke void @_ZN9grpc_core3URIC1ERKS0_(ptr noundef nonnull align 8 dereferenceable(200) %1, ptr noundef nonnull align 8 dereferenceable(200) %2)
          to label %"_ZNSt14_Function_base13_Base_managerIZN9grpc_core11HttpRequest3GetENS1_3URIEPK17grpc_channel_argsP19grpc_polling_entityPK17grpc_http_requestNS1_9TimestampEP12grpc_closureP18grpc_http_responseNS1_13RefCountedPtrI24grpc_channel_credentialsEEE3$_0E15_M_init_functorIRKSK_EEvRSt9_Any_dataOT_.exit.i" unwind label %lpad.i.i.i

lpad.i.i.i:                                       ; preds = %sw.bb4.i
  %3 = landingpad { ptr, i32 }
          cleanup
  tail call void @_ZdlPv(ptr noundef nonnull %call.i.i.i) #18
  resume { ptr, i32 } %3

"_ZNSt14_Function_base13_Base_managerIZN9grpc_core11HttpRequest3GetENS1_3URIEPK17grpc_channel_argsP19grpc_polling_entityPK17grpc_http_requestNS1_9TimestampEP12grpc_closureP18grpc_http_responseNS1_13RefCountedPtrI24grpc_channel_credentialsEEE3$_0E15_M_init_functorIRKSK_EEvRSt9_Any_dataOT_.exit.i": ; preds = %sw.bb4.i
  %4 = getelementptr inbounds i8, ptr %call.i.i.i, i64 208
  %5 = getelementptr inbounds i8, ptr %__source.val5, i64 208
  tail call void @llvm.memcpy.p0.p0.i64(ptr noundef nonnull align 8 dereferenceable(24) %4, ptr noundef nonnull align 8 dereferenceable(24) %5, i64 24, i1 false)
  store ptr %call.i.i.i, ptr %__dest, align 8
  br label %sw.epilog

sw.bb6.i:                                         ; preds = %sw.default
  %__dest.val.i = load ptr, ptr %__dest, align 8
  %isnull.i.i = icmp eq ptr %__dest.val.i, null
  br i1 %isnull.i.i, label %sw.epilog, label %delete.notnull.i.i

delete.notnull.i.i:                               ; preds = %sw.bb6.i
  %6 = getelementptr inbounds i8, ptr %__dest.val.i, i64 8
  tail call void @_ZN9grpc_core3URID2Ev(ptr noundef nonnull align 8 dereferenceable(200) %6) #16
  tail call void @_ZdlPv(ptr noundef nonnull %__dest.val.i) #18
  br label %sw.epilog

sw.epilog:                                        ; preds = %delete.notnull.i.i, %sw.bb6.i, %"_ZNSt14_Function_base13_Base_managerIZN9grpc_core11HttpRequest3GetENS1_3URIEPK17grpc_channel_argsP19grpc_polling_entityPK17grpc_http_requestNS1_9TimestampEP12grpc_closureP18grpc_http_responseNS1_13RefCountedPtrI24grpc_channel_credentialsEEE3$_0E15_M_init_functorIRKSK_EEvRSt9_Any_dataOT_.exit.i", %sw.default, %sw.bb1, %sw.bb
  ret i1 false
}